target datalayout = "e-m:e-p270:32:32-p271:32:32-p272:64:64-i64:64-i128:128-f80:128-n8:16:32:64-S128"
target triple = "x86_64-pc-linux-gnu"

; Function Attrs: nounwind uwtable
define i32 @X509_check_ip_asc(ptr noundef %0, ptr noundef %1, i32 noundef %2) #0 {
  %4 = alloca i32, align 4
  %5 = alloca ptr, align 8
  %6 = alloca ptr, align 8
  %7 = alloca i32, align 4
  %8 = alloca [16 x i8], align 16
  %9 = alloca i64, align 8
  %10 = alloca i32, align 4
  store ptr %0, ptr %5, align 8, !tbaa !38
  store ptr %1, ptr %6, align 8, !tbaa !3
  store i32 %2, ptr %7, align 4, !tbaa !15
  call void @llvm.lifetime.start.p0(i64 16, ptr %8) #8
  call void @llvm.lifetime.start.p0(i64 8, ptr %9) #8
  %11 = load ptr, ptr %6, align 8, !tbaa !3
  %12 = icmp eq ptr %11, null
  br i1 %12, label %13, label %14

13:                                               ; preds = %3
  store i32 -2, ptr %4, align 4
  store i32 1, ptr %10, align 4
  br label %28

14:                                               ; preds = %3
  %15 = getelementptr inbounds [16 x i8], ptr %8, i64 0, i64 0
  %16 = load ptr, ptr %6, align 8, !tbaa !3
  %17 = call i32 @ossl_a2i_ipadd(ptr noundef %15, ptr noundef %16)
  %18 = sext i32 %17 to i64
  store i64 %18, ptr %9, align 8, !tbaa !10
  %19 = load i64, ptr %9, align 8, !tbaa !10
  %20 = icmp eq i64 %19, 0
  br i1 %20, label %21, label %22

21:                                               ; preds = %14
  store i32 -2, ptr %4, align 4
  store i32 1, ptr %10, align 4
  br label %28

22:                                               ; preds = %14
  %23 = load ptr, ptr %5, align 8, !tbaa !38
  %24 = getelementptr inbounds [16 x i8], ptr %8, i64 0, i64 0
  %25 = load i64, ptr %9, align 8, !tbaa !10
  %26 = load i32, ptr %7, align 4, !tbaa !15
  %27 = call i32 @do_x509_check(ptr noundef %23, ptr noundef %24, i64 noundef %25, i32 noundef %26, i32 noundef 7, ptr noundef null)
  store i32 %27, ptr %4, align 4
  store i32 1, ptr %10, align 4
  br label %28

28:                                               ; preds = %22, %21, %13
  call void @llvm.lifetime.end.p0(i64 8, ptr %9) #8
  call void @llvm.lifetime.end.p0(i64 16, ptr %8) #8
  %29 = load i32, ptr %4, align 4
  ret i32 %29
}