; Function Attrs: nounwind uwtable
define i32 @X509_check_ip_asc(ptr noundef %0, ptr noundef %1, i32 noundef %2) local_unnamed_addr #0 {
  %4 = alloca [16 x i8], align 16
  call void @llvm.lifetime.start.p0(i64 16, ptr nonnull %4) #12
  %5 = icmp eq ptr %1, null
  br i1 %5, label %12, label %6

6:                                                ; preds = %3
  %7 = call i32 @ossl_a2i_ipadd(ptr noundef nonnull %4, ptr noundef nonnull %1)
  %8 = icmp eq i32 %7, 0
  br i1 %8, label %12, label %9

9:                                                ; preds = %6
  %10 = zext nneg i32 %7 to i64
  %11 = call fastcc i32 @do_x509_check(ptr noundef %0, ptr noundef %4, i64 noundef %10, i32 noundef %2, i32 noundef 7, ptr noundef null)
  br label %12

12:                                               ; preds = %6, %3, %9
  %.0 = phi i32 [ %11, %9 ], [ -2, %3 ], [ -2, %6 ]
  call void @llvm.lifetime.end.p0(i64 16, ptr nonnull %4) #12
  ret i32 %.0
}